target datalayout = "e-m:e-p270:32:32-p271:32:32-p272:64:64-i64:64-i128:128-f80:128-n8:16:32:64-S128"
target triple = "x86_64-pc-linux-gnu"

; Function Attrs: mustprogress uwtable
define dso_local void @_Z17fvec_L2sqr_ny_refPfPKfS1_mm(ptr noundef %0, ptr noundef %1, ptr noundef %2, i64 noundef %3, i64 noundef %4) #2 {
  %6 = alloca ptr, align 8
  %7 = alloca ptr, align 8
  %8 = alloca ptr, align 8
  %9 = alloca i64, align 8
  %10 = alloca i64, align 8
  %11 = alloca i64, align 8
  store ptr %0, ptr %6, align 8, !tbaa !65
  store ptr %1, ptr %7, align 8, !tbaa !65
  store ptr %2, ptr %8, align 8, !tbaa !65
  store i64 %3, ptr %9, align 8, !tbaa !22
  store i64 %4, ptr %10, align 8, !tbaa !22
  call void @llvm.lifetime.start.p0(i64 8, ptr %11) #5
  store i64 0, ptr %11, align 8, !tbaa !22
  br label %12

12:                                               ; preds = %28, %5
  %13 = load i64, ptr %11, align 8, !tbaa !22
  %14 = load i64, ptr %10, align 8, !tbaa !22
  %15 = icmp ult i64 %13, %14
  br i1 %15, label %17, label %16

16:                                               ; preds = %12
  call void @llvm.lifetime.end.p0(i64 8, ptr %11) #5
  br label %31

17:                                               ; preds = %12
  %18 = load ptr, ptr %7, align 8, !tbaa !65
  %19 = load ptr, ptr %8, align 8, !tbaa !65
  %20 = load i64, ptr %9, align 8, !tbaa !22
  %21 = call noundef float @_ZN5faiss10fvec_L2sqrEPKfS1_m(ptr noundef %18, ptr noundef %19, i64 noundef %20)
  %22 = load ptr, ptr %6, align 8, !tbaa !65
  %23 = load i64, ptr %11, align 8, !tbaa !22
  %24 = getelementptr inbounds nuw float, ptr %22, i64 %23
  store float %21, ptr %24, align 4, !tbaa !20
  %25 = load i64, ptr %9, align 8, !tbaa !22
  %26 = load ptr, ptr %8, align 8, !tbaa !65
  %27 = getelementptr inbounds nuw float, ptr %26, i64 %25
  store ptr %27, ptr %8, align 8, !tbaa !65
  br label %28

28:                                               ; preds = %17
  %29 = load i64, ptr %11, align 8, !tbaa !22
  %30 = add i64 %29, 1
  store i64 %30, ptr %11, align 8, !tbaa !22
  br label %12, !llvm.loop !68

31:                                               ; preds = %16
  ret void
}